(lp0
S'poi'
p1
aS'exercised_stock_options'
p2
aS'fraction_to_poi'
p3
aS'shared_receipt_with_poi'
p4
aS'restricted_stock'
p5
aS'fraction_salary'
p6
aS'total_stock_value'
p7
aS'from_poi_to_this_person'
p8
aS'other'
p9
a.